target datalayout = "e-m:e-p270:32:32-p271:32:32-p272:64:64-i64:64-i128:128-f80:128-n8:16:32:64-S128"
target triple = "x86_64-pc-linux-gnu"

%struct.Abc_Ntk_t_ = type { i32, i32, ptr, ptr, ptr, ptr, ptr, ptr, ptr, ptr, ptr, ptr, ptr, [11 x i32], i32, i32, i32, i32, ptr, i32, ptr, ptr, i32, i32, i32, double, i32, %struct.Vec_Int_t_, ptr, ptr, ptr, ptr, ptr, float, i32, ptr, ptr, ptr, ptr, ptr, ptr, ptr, ptr, ptr, ptr, ptr, ptr, ptr, ptr, ptr, ptr, ptr, ptr, ptr, ptr, ptr, ptr }
%struct.Vec_Int_t_ = type { i32, i32, ptr }
%struct.Vec_Att_t_ = type { i32, ptr, ptr, ptr, ptr, ptr }
%struct.Vec_Ptr_t_ = type { i32, i32, ptr }

; Function Attrs: inlinehint nounwind uwtable
define internal i32 @Vec_PtrSize(ptr noundef %0) #2 {
  %2 = alloca ptr, align 8
  store ptr %0, ptr %2, align 8, !tbaa !37
  %3 = load ptr, ptr %2, align 8, !tbaa !37
  %4 = getelementptr inbounds nuw %struct.Vec_Ptr_t_, ptr %3, i32 0, i32 1
  %5 = load i32, ptr %4, align 4, !tbaa !108
  ret i32 %5
}

; Function Attrs: inlinehint nounwind uwtable
define internal void @Vec_PtrWriteEntry(ptr noundef %0, i32 noundef %1, ptr noundef %2) #2 {
  %4 = alloca ptr, align 8
  %5 = alloca i32, align 4
  %6 = alloca ptr, align 8
  store ptr %0, ptr %4, align 8, !tbaa !37
  store i32 %1, ptr %5, align 4, !tbaa !27
  store ptr %2, ptr %6, align 8, !tbaa !28
  %7 = load ptr, ptr %6, align 8, !tbaa !28
  %8 = load ptr, ptr %4, align 8, !tbaa !37
  %9 = getelementptr inbounds nuw %struct.Vec_Ptr_t_, ptr %8, i32 0, i32 2
  %10 = load ptr, ptr %9, align 8, !tbaa !38
  %11 = load i32, ptr %5, align 4, !tbaa !27
  %12 = sext i32 %11 to i64
  %13 = getelementptr inbounds ptr, ptr %10, i64 %12
  store ptr %7, ptr %13, align 8, !tbaa !28
  ret void
}

; Function Attrs: inlinehint nounwind uwtable
define internal ptr @Vec_AttAlloc(i32 noundef %0, ptr noundef %1, ptr noundef %2, ptr noundef %3, ptr noundef %4) #2 {
  %6 = alloca i32, align 4
  %7 = alloca ptr, align 8
  %8 = alloca ptr, align 8
  %9 = alloca ptr, align 8
  %10 = alloca ptr, align 8
  %11 = alloca ptr, align 8
  store i32 %0, ptr %6, align 4, !tbaa !27
  store ptr %1, ptr %7, align 8, !tbaa !28
  store ptr %2, ptr %8, align 8, !tbaa !28
  store ptr %3, ptr %9, align 8, !tbaa !28
  store ptr %4, ptr %10, align 8, !tbaa !28
  call void @llvm.lifetime.start.p0(i64 8, ptr %11) #9
  %12 = call noalias ptr @malloc(i64 noundef 48) #10
  store ptr %12, ptr %11, align 8, !tbaa !8
  %13 = load ptr, ptr %11, align 8, !tbaa !8
  call void @llvm.memset.p0.i64(ptr align 8 %13, i8 0, i64 48, i1 false)
  %14 = load ptr, ptr %7, align 8, !tbaa !28
  %15 = load ptr, ptr %11, align 8, !tbaa !8
  %16 = getelementptr inbounds nuw %struct.Vec_Att_t_, ptr %15, i32 0, i32 2
  store ptr %14, ptr %16, align 8, !tbaa !29
  %17 = load ptr, ptr %8, align 8, !tbaa !28
  %18 = load ptr, ptr %11, align 8, !tbaa !8
  %19 = getelementptr inbounds nuw %struct.Vec_Att_t_, ptr %18, i32 0, i32 3
  store ptr %17, ptr %19, align 8, !tbaa !31
  %20 = load ptr, ptr %9, align 8, !tbaa !28
  %21 = load ptr, ptr %11, align 8, !tbaa !8
  %22 = getelementptr inbounds nuw %struct.Vec_Att_t_, ptr %21, i32 0, i32 4
  store ptr %20, ptr %22, align 8, !tbaa !32
  %23 = load ptr, ptr %10, align 8, !tbaa !28
  %24 = load ptr, ptr %11, align 8, !tbaa !8
  %25 = getelementptr inbounds nuw %struct.Vec_Att_t_, ptr %24, i32 0, i32 5
  store ptr %23, ptr %25, align 8, !tbaa !33
  %26 = load i32, ptr %6, align 4, !tbaa !27
  %27 = icmp ne i32 %26, 0
  br i1 %27, label %28, label %30

28:                                               ; preds = %5
  %29 = load i32, ptr %6, align 4, !tbaa !27
  br label %31

30:                                               ; preds = %5
  br label %31

31:                                               ; preds = %30, %28
  %32 = phi i32 [ %29, %28 ], [ 16, %30 ]
  %33 = load ptr, ptr %11, align 8, !tbaa !8
  %34 = getelementptr inbounds nuw %struct.Vec_Att_t_, ptr %33, i32 0, i32 0
  store i32 %32, ptr %34, align 8, !tbaa !34
  %35 = load ptr, ptr %11, align 8, !tbaa !8
  %36 = getelementptr inbounds nuw %struct.Vec_Att_t_, ptr %35, i32 0, i32 0
  %37 = load i32, ptr %36, align 8, !tbaa !34
  %38 = sext i32 %37 to i64
  %39 = mul i64 8, %38
  %40 = call noalias ptr @malloc(i64 noundef %39) #10
  %41 = load ptr, ptr %11, align 8, !tbaa !8
  %42 = getelementptr inbounds nuw %struct.Vec_Att_t_, ptr %41, i32 0, i32 1
  store ptr %40, ptr %42, align 8, !tbaa !35
  %43 = load ptr, ptr %11, align 8, !tbaa !8
  %44 = getelementptr inbounds nuw %struct.Vec_Att_t_, ptr %43, i32 0, i32 1
  %45 = load ptr, ptr %44, align 8, !tbaa !35
  %46 = load ptr, ptr %11, align 8, !tbaa !8
  %47 = getelementptr inbounds nuw %struct.Vec_Att_t_, ptr %46, i32 0, i32 0
  %48 = load i32, ptr %47, align 8, !tbaa !34
  %49 = sext i32 %48 to i64
  %50 = mul i64 8, %49
  call void @llvm.memset.p0.i64(ptr align 8 %45, i8 0, i64 %50, i1 false)
  %51 = load ptr, ptr %11, align 8, !tbaa !8
  call void @llvm.lifetime.end.p0(i64 8, ptr %11) #9
  ret ptr %51
}

; Function Attrs: inlinehint nounwind uwtable
define internal i32 @Abc_NtkObjNumMax(ptr noundef %0) #2 {
  %2 = alloca ptr, align 8
  store ptr %0, ptr %2, align 8, !tbaa !3
  %3 = load ptr, ptr %2, align 8, !tbaa !3
  %4 = getelementptr inbounds nuw %struct.Abc_Ntk_t_, ptr %3, i32 0, i32 5
  %5 = load ptr, ptr %4, align 8, !tbaa !36
  %6 = call i32 @Vec_PtrSize(ptr noundef %5)
  ret i32 %6
}

; Function Attrs: nounwind uwtable
define void @Abc_NtkStartMvVars(ptr noundef %0) #0 {
  %2 = alloca ptr, align 8
  %3 = alloca ptr, align 8
  store ptr %0, ptr %2, align 8, !tbaa !3
  call void @llvm.lifetime.start.p0(i64 8, ptr %3) #9
  %4 = load ptr, ptr %2, align 8, !tbaa !3
  %5 = call i32 @Abc_NtkObjNumMax(ptr noundef %4)
  %6 = add nsw i32 %5, 1
  %7 = call ptr (...) @Mem_FlexStart()
  %8 = call ptr @Vec_AttAlloc(i32 noundef %6, ptr noundef %7, ptr noundef @Mem_FlexStop, ptr noundef null, ptr noundef null)
  store ptr %8, ptr %3, align 8, !tbaa !8
  %9 = load ptr, ptr %2, align 8, !tbaa !3
  %10 = getelementptr inbounds nuw %struct.Abc_Ntk_t_, ptr %9, i32 0, i32 53
  %11 = load ptr, ptr %10, align 8, !tbaa !10
  %12 = load ptr, ptr %3, align 8, !tbaa !8
  call void @Vec_PtrWriteEntry(ptr noundef %11, i32 noundef 12, ptr noundef %12)
  call void @llvm.lifetime.end.p0(i64 8, ptr %3) #9
  ret void
}