; Function Attrs: nounwind uwtable
define void @Abc_NtkStartMvVars(ptr noundef readonly captures(none) %0) local_unnamed_addr #0 {
  %2 = getelementptr i8, ptr %0, i64 32
  %.val = load ptr, ptr %2, align 8, !tbaa !3
  %3 = getelementptr i8, ptr %.val, i64 4
  %.val.val = load i32, ptr %3, align 4, !tbaa !24
  %4 = add nsw i32 %.val.val, 1
  %5 = tail call ptr (...) @Mem_FlexStart() #15
  %calloc.i = tail call dereferenceable_or_null(48) ptr @calloc(i64 1, i64 48)
  %6 = getelementptr inbounds nuw i8, ptr %calloc.i, i64 16
  store ptr %5, ptr %6, align 8, !tbaa !26
  %7 = getelementptr inbounds nuw i8, ptr %calloc.i, i64 24
  store ptr @Mem_FlexStop, ptr %7, align 8, !tbaa !28
  %.not.i = icmp eq i32 %4, 0
  %8 = select i1 %.not.i, i32 16, i32 %4
  store i32 %8, ptr %calloc.i, align 8, !tbaa !29
  %9 = sext i32 %8 to i64
  %10 = shl nsw i64 %9, 3
  %calloc1.i = tail call ptr @calloc(i64 1, i64 %10)
  %11 = getelementptr inbounds nuw i8, ptr %calloc.i, i64 8
  store ptr %calloc1.i, ptr %11, align 8, !tbaa !30
  %12 = getelementptr inbounds nuw i8, ptr %0, i64 432
  %13 = load ptr, ptr %12, align 8, !tbaa !31
  %14 = getelementptr i8, ptr %13, i64 8
  %.val3 = load ptr, ptr %14, align 8, !tbaa !32
  %15 = getelementptr inbounds nuw i8, ptr %.val3, i64 96
  store ptr %calloc.i, ptr %15, align 8, !tbaa !33
  ret void
}